#include <math.h>
#include <stdio.h>
#include <stdlib.h>
#include <string.h>

struct student{
	char name[20];
	int qimo;
	int ping;
	char gan;
	char xi;
	int lun;
}stu[101];

int main(int argc, char* argv[])
{	int n,i;
	int jiang[101];
	scanf("%d",&n);
	for(i=0;i<n;i++){
		scanf("%s %d %d %c %c %d",stu[i].name,&stu[i].qimo,&stu[i].ping,&stu[i].gan,&stu[i].xi,&stu[i].lun);
		jiang[i]=0;
	}
	int max=0,zong=0;
	for(i=0;i<n;i++){
		if(stu[i].qimo>80&&stu[i].lun>0)jiang[i]+=8000;
		if(stu[i].qimo>85&&stu[i].ping>80)jiang[i]+=4000;
		if(stu[i].qimo>90)jiang[i]+=2000;
		if(stu[i].qimo>85&&stu[i].xi=='Y')jiang[i]+=1000;
		if(stu[i].ping>80&&stu[i].gan=='Y')jiang[i]+=850;
		if(max<jiang[i])max=jiang[i];
		zong+=jiang[i];
	}
	for(i=0;i<n;i++){
		if(max==jiang[i]){
			printf("%s\n%d\n",stu[i].name,jiang[i]);break;

		}
	}
	
printf("%d\n",zong);
		
	return 0;
}
