; ModuleID = '39/661.c'
source_filename = "39/661.c"
target datalayout = "e-m:e-p270:32:32-p271:32:32-p272:64:64-i64:64-f80:128-n8:16:32:64-S128"
target triple = "x86_64-pc-linux-gnu"

%struct.student = type { [20 x i8], i32, i32, i8, i8, i32 }

@.str = private unnamed_addr constant [3 x i8] c"%d\00", align 1
@.str.1 = private unnamed_addr constant [18 x i8] c"%s %d %d %c %c %d\00", align 1
@stu = common dso_local global [101 x %struct.student] zeroinitializer, align 16
@.str.2 = private unnamed_addr constant [7 x i8] c"%s\0A%d\0A\00", align 1
@.str.3 = private unnamed_addr constant [4 x i8] c"%d\0A\00", align 1

; Function Attrs: noinline nounwind uwtable
define dso_local i32 @main(i32 %0, i8** %1) #0 {
  %3 = alloca i32, align 4
  %4 = alloca i32, align 4
  %5 = alloca i8**, align 8
  %6 = alloca i32, align 4
  %7 = alloca i32, align 4
  %8 = alloca [101 x i32], align 16
  %9 = alloca i32, align 4
  %10 = alloca i32, align 4
  store i32 0, i32* %3, align 4
  store i32 %0, i32* %4, align 4
  store i8** %1, i8*** %5, align 8
  %11 = call i32 (i8*, ...) @__isoc99_scanf(i8* getelementptr inbounds ([3 x i8], [3 x i8]* @.str, i64 0, i64 0), i32* %6)
  store i32 0, i32* %7, align 4
  br label %12

12:                                               ; preds = %46, %2
  %13 = load i32, i32* %7, align 4
  %14 = load i32, i32* %6, align 4
  %15 = icmp slt i32 %13, %14
  br i1 %15, label %16, label %49

16:                                               ; preds = %12
  %17 = load i32, i32* %7, align 4
  %18 = sext i32 %17 to i64
  %19 = getelementptr inbounds [101 x %struct.student], [101 x %struct.student]* @stu, i64 0, i64 %18
  %20 = getelementptr inbounds %struct.student, %struct.student* %19, i32 0, i32 0
  %21 = getelementptr inbounds [20 x i8], [20 x i8]* %20, i64 0, i64 0
  %22 = load i32, i32* %7, align 4
  %23 = sext i32 %22 to i64
  %24 = getelementptr inbounds [101 x %struct.student], [101 x %struct.student]* @stu, i64 0, i64 %23
  %25 = getelementptr inbounds %struct.student, %struct.student* %24, i32 0, i32 1
  %26 = load i32, i32* %7, align 4
  %27 = sext i32 %26 to i64
  %28 = getelementptr inbounds [101 x %struct.student], [101 x %struct.student]* @stu, i64 0, i64 %27
  %29 = getelementptr inbounds %struct.student, %struct.student* %28, i32 0, i32 2
  %30 = load i32, i32* %7, align 4
  %31 = sext i32 %30 to i64
  %32 = getelementptr inbounds [101 x %struct.student], [101 x %struct.student]* @stu, i64 0, i64 %31
  %33 = getelementptr inbounds %struct.student, %struct.student* %32, i32 0, i32 3
  %34 = load i32, i32* %7, align 4
  %35 = sext i32 %34 to i64
  %36 = getelementptr inbounds [101 x %struct.student], [101 x %struct.student]* @stu, i64 0, i64 %35
  %37 = getelementptr inbounds %struct.student, %struct.student* %36, i32 0, i32 4
  %38 = load i32, i32* %7, align 4
  %39 = sext i32 %38 to i64
  %40 = getelementptr inbounds [101 x %struct.student], [101 x %struct.student]* @stu, i64 0, i64 %39
  %41 = getelementptr inbounds %struct.student, %struct.student* %40, i32 0, i32 5
  %42 = call i32 (i8*, ...) @__isoc99_scanf(i8* getelementptr inbounds ([18 x i8], [18 x i8]* @.str.1, i64 0, i64 0), i8* %21, i32* %25, i32* %29, i8* %33, i8* %37, i32* %41)
  %43 = load i32, i32* %7, align 4
  %44 = sext i32 %43 to i64
  %45 = getelementptr inbounds [101 x i32], [101 x i32]* %8, i64 0, i64 %44
  store i32 0, i32* %45, align 4
  br label %46

46:                                               ; preds = %16
  %47 = load i32, i32* %7, align 4
  %48 = add nsw i32 %47, 1
  store i32 %48, i32* %7, align 4
  br label %12

49:                                               ; preds = %12
  store i32 0, i32* %9, align 4
  store i32 0, i32* %10, align 4
  store i32 0, i32* %7, align 4
  br label %50

50:                                               ; preds = %168, %49
  %51 = load i32, i32* %7, align 4
  %52 = load i32, i32* %6, align 4
  %53 = icmp slt i32 %51, %52
  br i1 %53, label %54, label %171

54:                                               ; preds = %50
  %55 = load i32, i32* %7, align 4
  %56 = sext i32 %55 to i64
  %57 = getelementptr inbounds [101 x %struct.student], [101 x %struct.student]* @stu, i64 0, i64 %56
  %58 = getelementptr inbounds %struct.student, %struct.student* %57, i32 0, i32 1
  %59 = load i32, i32* %58, align 4
  %60 = icmp sgt i32 %59, 80
  br i1 %60, label %61, label %74

61:                                               ; preds = %54
  %62 = load i32, i32* %7, align 4
  %63 = sext i32 %62 to i64
  %64 = getelementptr inbounds [101 x %struct.student], [101 x %struct.student]* @stu, i64 0, i64 %63
  %65 = getelementptr inbounds %struct.student, %struct.student* %64, i32 0, i32 5
  %66 = load i32, i32* %65, align 4
  %67 = icmp sgt i32 %66, 0
  br i1 %67, label %68, label %74

68:                                               ; preds = %61
  %69 = load i32, i32* %7, align 4
  %70 = sext i32 %69 to i64
  %71 = getelementptr inbounds [101 x i32], [101 x i32]* %8, i64 0, i64 %70
  %72 = load i32, i32* %71, align 4
  %73 = add nsw i32 %72, 8000
  store i32 %73, i32* %71, align 4
  br label %74

74:                                               ; preds = %68, %61, %54
  %75 = load i32, i32* %7, align 4
  %76 = sext i32 %75 to i64
  %77 = getelementptr inbounds [101 x %struct.student], [101 x %struct.student]* @stu, i64 0, i64 %76
  %78 = getelementptr inbounds %struct.student, %struct.student* %77, i32 0, i32 1
  %79 = load i32, i32* %78, align 4
  %80 = icmp sgt i32 %79, 85
  br i1 %80, label %81, label %94

81:                                               ; preds = %74
  %82 = load i32, i32* %7, align 4
  %83 = sext i32 %82 to i64
  %84 = getelementptr inbounds [101 x %struct.student], [101 x %struct.student]* @stu, i64 0, i64 %83
  %85 = getelementptr inbounds %struct.student, %struct.student* %84, i32 0, i32 2
  %86 = load i32, i32* %85, align 4
  %87 = icmp sgt i32 %86, 80
  br i1 %87, label %88, label %94

88:                                               ; preds = %81
  %89 = load i32, i32* %7, align 4
  %90 = sext i32 %89 to i64
  %91 = getelementptr inbounds [101 x i32], [101 x i32]* %8, i64 0, i64 %90
  %92 = load i32, i32* %91, align 4
  %93 = add nsw i32 %92, 4000
  store i32 %93, i32* %91, align 4
  br label %94

94:                                               ; preds = %88, %81, %74
  %95 = load i32, i32* %7, align 4
  %96 = sext i32 %95 to i64
  %97 = getelementptr inbounds [101 x %struct.student], [101 x %struct.student]* @stu, i64 0, i64 %96
  %98 = getelementptr inbounds %struct.student, %struct.student* %97, i32 0, i32 1
  %99 = load i32, i32* %98, align 4
  %100 = icmp sgt i32 %99, 90
  br i1 %100, label %101, label %107

101:                                              ; preds = %94
  %102 = load i32, i32* %7, align 4
  %103 = sext i32 %102 to i64
  %104 = getelementptr inbounds [101 x i32], [101 x i32]* %8, i64 0, i64 %103
  %105 = load i32, i32* %104, align 4
  %106 = add nsw i32 %105, 2000
  store i32 %106, i32* %104, align 4
  br label %107

107:                                              ; preds = %101, %94
  %108 = load i32, i32* %7, align 4
  %109 = sext i32 %108 to i64
  %110 = getelementptr inbounds [101 x %struct.student], [101 x %struct.student]* @stu, i64 0, i64 %109
  %111 = getelementptr inbounds %struct.student, %struct.student* %110, i32 0, i32 1
  %112 = load i32, i32* %111, align 4
  %113 = icmp sgt i32 %112, 85
  br i1 %113, label %114, label %128

114:                                              ; preds = %107
  %115 = load i32, i32* %7, align 4
  %116 = sext i32 %115 to i64
  %117 = getelementptr inbounds [101 x %struct.student], [101 x %struct.student]* @stu, i64 0, i64 %116
  %118 = getelementptr inbounds %struct.student, %struct.student* %117, i32 0, i32 4
  %119 = load i8, i8* %118, align 1
  %120 = sext i8 %119 to i32
  %121 = icmp eq i32 %120, 89
  br i1 %121, label %122, label %128

122:                                              ; preds = %114
  %123 = load i32, i32* %7, align 4
  %124 = sext i32 %123 to i64
  %125 = getelementptr inbounds [101 x i32], [101 x i32]* %8, i64 0, i64 %124
  %126 = load i32, i32* %125, align 4
  %127 = add nsw i32 %126, 1000
  store i32 %127, i32* %125, align 4
  br label %128

128:                                              ; preds = %122, %114, %107
  %129 = load i32, i32* %7, align 4
  %130 = sext i32 %129 to i64
  %131 = getelementptr inbounds [101 x %struct.student], [101 x %struct.student]* @stu, i64 0, i64 %130
  %132 = getelementptr inbounds %struct.student, %struct.student* %131, i32 0, i32 2
  %133 = load i32, i32* %132, align 4
  %134 = icmp sgt i32 %133, 80
  br i1 %134, label %135, label %149

135:                                              ; preds = %128
  %136 = load i32, i32* %7, align 4
  %137 = sext i32 %136 to i64
  %138 = getelementptr inbounds [101 x %struct.student], [101 x %struct.student]* @stu, i64 0, i64 %137
  %139 = getelementptr inbounds %struct.student, %struct.student* %138, i32 0, i32 3
  %140 = load i8, i8* %139, align 4
  %141 = sext i8 %140 to i32
  %142 = icmp eq i32 %141, 89
  br i1 %142, label %143, label %149

143:                                              ; preds = %135
  %144 = load i32, i32* %7, align 4
  %145 = sext i32 %144 to i64
  %146 = getelementptr inbounds [101 x i32], [101 x i32]* %8, i64 0, i64 %145
  %147 = load i32, i32* %146, align 4
  %148 = add nsw i32 %147, 850
  store i32 %148, i32* %146, align 4
  br label %149

149:                                              ; preds = %143, %135, %128
  %150 = load i32, i32* %9, align 4
  %151 = load i32, i32* %7, align 4
  %152 = sext i32 %151 to i64
  %153 = getelementptr inbounds [101 x i32], [101 x i32]* %8, i64 0, i64 %152
  %154 = load i32, i32* %153, align 4
  %155 = icmp slt i32 %150, %154
  br i1 %155, label %156, label %161

156:                                              ; preds = %149
  %157 = load i32, i32* %7, align 4
  %158 = sext i32 %157 to i64
  %159 = getelementptr inbounds [101 x i32], [101 x i32]* %8, i64 0, i64 %158
  %160 = load i32, i32* %159, align 4
  store i32 %160, i32* %9, align 4
  br label %161

161:                                              ; preds = %156, %149
  %162 = load i32, i32* %7, align 4
  %163 = sext i32 %162 to i64
  %164 = getelementptr inbounds [101 x i32], [101 x i32]* %8, i64 0, i64 %163
  %165 = load i32, i32* %164, align 4
  %166 = load i32, i32* %10, align 4
  %167 = add nsw i32 %166, %165
  store i32 %167, i32* %10, align 4
  br label %168

168:                                              ; preds = %161
  %169 = load i32, i32* %7, align 4
  %170 = add nsw i32 %169, 1
  store i32 %170, i32* %7, align 4
  br label %50

171:                                              ; preds = %50
  store i32 0, i32* %7, align 4
  br label %172

172:                                              ; preds = %195, %171
  %173 = load i32, i32* %7, align 4
  %174 = load i32, i32* %6, align 4
  %175 = icmp slt i32 %173, %174
  br i1 %175, label %176, label %198

176:                                              ; preds = %172
  %177 = load i32, i32* %9, align 4
  %178 = load i32, i32* %7, align 4
  %179 = sext i32 %178 to i64
  %180 = getelementptr inbounds [101 x i32], [101 x i32]* %8, i64 0, i64 %179
  %181 = load i32, i32* %180, align 4
  %182 = icmp eq i32 %177, %181
  br i1 %182, label %183, label %194

183:                                              ; preds = %176
  %184 = load i32, i32* %7, align 4
  %185 = sext i32 %184 to i64
  %186 = getelementptr inbounds [101 x %struct.student], [101 x %struct.student]* @stu, i64 0, i64 %185
  %187 = getelementptr inbounds %struct.student, %struct.student* %186, i32 0, i32 0
  %188 = getelementptr inbounds [20 x i8], [20 x i8]* %187, i64 0, i64 0
  %189 = load i32, i32* %7, align 4
  %190 = sext i32 %189 to i64
  %191 = getelementptr inbounds [101 x i32], [101 x i32]* %8, i64 0, i64 %190
  %192 = load i32, i32* %191, align 4
  %193 = call i32 (i8*, ...) @printf(i8* getelementptr inbounds ([7 x i8], [7 x i8]* @.str.2, i64 0, i64 0), i8* %188, i32 %192)
  br label %198

194:                                              ; preds = %176
  br label %195

195:                                              ; preds = %194
  %196 = load i32, i32* %7, align 4
  %197 = add nsw i32 %196, 1
  store i32 %197, i32* %7, align 4
  br label %172

198:                                              ; preds = %183, %172
  %199 = load i32, i32* %10, align 4
  %200 = call i32 (i8*, ...) @printf(i8* getelementptr inbounds ([4 x i8], [4 x i8]* @.str.3, i64 0, i64 0), i32 %199)
  ret i32 0
}

declare dso_local i32 @__isoc99_scanf(i8*, ...) #1

declare dso_local i32 @printf(i8*, ...) #1


!llvm.module.flags = !{!0}
!llvm.ident = !{!1}

!0 = !{i32 1, !"wchar_size", i32 4}
!1 = !{!"clang version 10.0.0-4ubuntu1 "}
